target datalayout = "e-m:e-p270:32:32-p271:32:32-p272:64:64-i64:64-i128:128-f80:128-n8:16:32:64-S128"
target triple = "x86_64-pc-linux-gnu"

%struct.prov_cipher_fake_ctx_st = type { [32 x i8], [16 x i8] }

; Function Attrs: nounwind uwtable
define internal i32 @fake_cipher(ptr noundef %0, ptr noundef %1, ptr noundef %2, i64 noundef %3, ptr noundef %4, i64 noundef %5) #0 {
  %7 = alloca i32, align 4
  %8 = alloca ptr, align 8
  %9 = alloca ptr, align 8
  %10 = alloca ptr, align 8
  %11 = alloca i64, align 8
  %12 = alloca ptr, align 8
  %13 = alloca i64, align 8
  %14 = alloca ptr, align 8
  %15 = alloca i64, align 8
  %16 = alloca i32, align 4
  store ptr %0, ptr %8, align 8, !tbaa !17
  store ptr %1, ptr %9, align 8, !tbaa !22
  store ptr %2, ptr %10, align 8, !tbaa !24
  store i64 %3, ptr %11, align 8, !tbaa !26
  store ptr %4, ptr %12, align 8, !tbaa !22
  store i64 %5, ptr %13, align 8, !tbaa !26
  call void @llvm.lifetime.start.p0(i64 8, ptr %14) #6
  %17 = load ptr, ptr %8, align 8, !tbaa !17
  store ptr %17, ptr %14, align 8, !tbaa !28
  call void @llvm.lifetime.start.p0(i64 8, ptr %15) #6
  %18 = load i64, ptr %11, align 8, !tbaa !26
  %19 = load i64, ptr %13, align 8, !tbaa !26
  %20 = icmp ult i64 %18, %19
  br i1 %20, label %21, label %22

21:                                               ; preds = %6
  store i32 0, ptr %7, align 4
  store i32 1, ptr %16, align 4
  br label %59

22:                                               ; preds = %6
  %23 = load ptr, ptr %9, align 8, !tbaa !22
  %24 = icmp ne ptr %23, null
  br i1 %24, label %25, label %33

25:                                               ; preds = %22
  %26 = load ptr, ptr %12, align 8, !tbaa !22
  %27 = load ptr, ptr %9, align 8, !tbaa !22
  %28 = icmp ne ptr %26, %27
  br i1 %28, label %29, label %33

29:                                               ; preds = %25
  %30 = load ptr, ptr %9, align 8, !tbaa !22
  %31 = load ptr, ptr %12, align 8, !tbaa !22
  %32 = load i64, ptr %13, align 8, !tbaa !26
  call void @llvm.memcpy.p0.p0.i64(ptr align 1 %30, ptr align 1 %31, i64 %32, i1 false)
  br label %33

33:                                               ; preds = %29, %25, %22
  store i64 0, ptr %15, align 8, !tbaa !26
  br label %34

34:                                               ; preds = %53, %33
  %35 = load i64, ptr %15, align 8, !tbaa !26
  %36 = load i64, ptr %13, align 8, !tbaa !26
  %37 = icmp ult i64 %35, %36
  br i1 %37, label %38, label %56

38:                                               ; preds = %34
  %39 = load ptr, ptr %14, align 8, !tbaa !28
  %40 = getelementptr inbounds nuw %struct.prov_cipher_fake_ctx_st, ptr %39, i32 0, i32 1
  %41 = load i64, ptr %15, align 8, !tbaa !26
  %42 = urem i64 %41, 16
  %43 = getelementptr inbounds nuw [16 x i8], ptr %40, i64 0, i64 %42
  %44 = load i8, ptr %43, align 1, !tbaa !30
  %45 = zext i8 %44 to i32
  %46 = load ptr, ptr %9, align 8, !tbaa !22
  %47 = load i64, ptr %15, align 8, !tbaa !26
  %48 = getelementptr inbounds nuw i8, ptr %46, i64 %47
  %49 = load i8, ptr %48, align 1, !tbaa !30
  %50 = zext i8 %49 to i32
  %51 = xor i32 %50, %45
  %52 = trunc i32 %51 to i8
  store i8 %52, ptr %48, align 1, !tbaa !30
  br label %53

53:                                               ; preds = %38
  %54 = load i64, ptr %15, align 8, !tbaa !26
  %55 = add i64 %54, 1
  store i64 %55, ptr %15, align 8, !tbaa !26
  br label %34, !llvm.loop !31

56:                                               ; preds = %34
  %57 = load i64, ptr %13, align 8, !tbaa !26
  %58 = load ptr, ptr %10, align 8, !tbaa !24
  store i64 %57, ptr %58, align 8, !tbaa !26
  store i32 1, ptr %7, align 4
  store i32 1, ptr %16, align 4
  br label %59

59:                                               ; preds = %56, %21
  call void @llvm.lifetime.end.p0(i64 8, ptr %15) #6
  call void @llvm.lifetime.end.p0(i64 8, ptr %14) #6
  %60 = load i32, ptr %7, align 4
  ret i32 %60
}