; Function Attrs: nofree norecurse nosync nounwind memory(argmem: readwrite) uwtable
define internal range(i32 0, 2) i32 @fake_cipher(ptr noundef readonly captures(none) %0, ptr noundef captures(address) %1, ptr noundef writeonly captures(none) %2, i64 noundef %3, ptr noundef readonly captures(address) %4, i64 noundef %5) #4 {
  %7 = icmp ult i64 %3, %5
  br i1 %7, label %20, label %8

8:                                                ; preds = %6
  %.not = icmp eq ptr %1, null
  %.not22 = icmp eq ptr %4, %1
  %or.cond = or i1 %.not, %.not22
  br i1 %or.cond, label %10, label %9

9:                                                ; preds = %8
  tail call void @llvm.memcpy.p0.p0.i64(ptr nonnull align 1 %1, ptr align 1 %4, i64 %5, i1 false)
  br label %10

10:                                               ; preds = %9, %8
  %.not24 = icmp eq i64 %5, 0
  br i1 %.not24, label %._crit_edge, label %.lr.ph

.lr.ph:                                           ; preds = %10
  %11 = getelementptr inbounds nuw i8, ptr %0, i64 32
  br label %12

12:                                               ; preds = %.lr.ph, %12
  %.023 = phi i64 [ 0, %.lr.ph ], [ %19, %12 ]
  %13 = and i64 %.023, 15
  %14 = getelementptr inbounds nuw [16 x i8], ptr %11, i64 0, i64 %13
  %15 = load i8, ptr %14, align 1, !tbaa !12
  %16 = getelementptr inbounds nuw i8, ptr %1, i64 %.023
  %17 = load i8, ptr %16, align 1, !tbaa !12
  %18 = xor i8 %17, %15
  store i8 %18, ptr %16, align 1, !tbaa !12
  %19 = add nuw i64 %.023, 1
  %exitcond.not = icmp eq i64 %19, %5
  br i1 %exitcond.not, label %._crit_edge, label %12, !llvm.loop !13

._crit_edge:                                      ; preds = %12, %10
  store i64 %5, ptr %2, align 8, !tbaa !15
  br label %20

20:                                               ; preds = %6, %._crit_edge
  %.018 = phi i32 [ 1, %._crit_edge ], [ 0, %6 ]
  ret i32 %.018
}